target datalayout = "e-m:e-p270:32:32-p271:32:32-p272:64:64-i64:64-i128:128-f80:128-n8:16:32:64-S128"
target triple = "x86_64-pc-linux-gnu"

%struct.json_dumper = type { ptr, ptr, i32, i32, i32, i32, [1100 x i8] }
%struct.nstime_t = type { i64, i32 }
%struct._srt_data_t = type { ptr, ptr }
%struct._GArray = type { ptr, i32 }
%struct._timestat_t = type { i32, i32, i32, %struct.nstime_t, %struct.nstime_t, %struct.nstime_t, double }
%struct._srt_stat_table = type { ptr, ptr, ptr, i32, ptr, ptr, ptr }
%struct._srt_procedure_t = type { i32, %struct._timestat_t, ptr }

@dumper = internal global %struct.json_dumper zeroinitializer, align 8
@.str.5 = private unnamed_addr constant [3 x i8] c"%d\00", align 1
@.str.20 = private unnamed_addr constant [4 x i8] c"tap\00", align 1
@.str.123 = private unnamed_addr constant [3 x i8] c"%u\00", align 1
@.str.125 = private unnamed_addr constant [5 x i8] c"%.9f\00", align 1
@.str.163 = private unnamed_addr constant [4 x i8] c"srt\00", align 1
@.str.175 = private unnamed_addr constant [7 x i8] c"srt:%s\00", align 1
@.str.185 = private unnamed_addr constant [2 x i8] c"f\00", align 1
@.str.187 = private unnamed_addr constant [2 x i8] c"n\00", align 1
@.str.195 = private unnamed_addr constant [2 x i8] c"c\00", align 1
@.str.196 = private unnamed_addr constant [4 x i8] c"num\00", align 1
@.str.244 = private unnamed_addr constant [5 x i8] c"type\00", align 1
@.str.248 = private unnamed_addr constant [4 x i8] c"min\00", align 1
@.str.249 = private unnamed_addr constant [4 x i8] c"max\00", align 1
@.str.298 = private unnamed_addr constant [7 x i8] c"tables\00", align 1
@.str.305 = private unnamed_addr constant [4 x i8] c"tot\00", align 1
@.str.308 = private unnamed_addr constant [8 x i8] c"table%u\00", align 1
@.str.309 = private unnamed_addr constant [2 x i8] c"r\00", align 1
@.str.310 = private unnamed_addr constant [4 x i8] c"idx\00", align 1

; Function Attrs: null_pointer_is_valid sspstrong uwtable
define internal void @sharkd_json_array_close() #0 {
  call void @json_dumper_end_array(ptr noundef @dumper)
  ret void
}

; Function Attrs: null_pointer_is_valid sspstrong uwtable
define internal void @sharkd_json_array_open(ptr noundef %0) #0 {
  %2 = alloca ptr, align 8
  store ptr %0, ptr %2, align 8
  %3 = load ptr, ptr %2, align 8
  %4 = icmp ne ptr %3, null
  br i1 %4, label %5, label %7

5:                                                ; preds = %1
  %6 = load ptr, ptr %2, align 8
  call void @json_dumper_set_member_name(ptr noundef @dumper, ptr noundef %6)
  br label %7

7:                                                ; preds = %5, %1
  call void @json_dumper_begin_array(ptr noundef @dumper)
  ret void
}

; Function Attrs: null_pointer_is_valid sspstrong uwtable
define internal void @sharkd_json_value_string(ptr noundef %0, ptr noundef %1) #0 {
  %3 = alloca ptr, align 8
  %4 = alloca ptr, align 8
  store ptr %0, ptr %3, align 8
  store ptr %1, ptr %4, align 8
  %5 = load ptr, ptr %3, align 8
  %6 = icmp ne ptr %5, null
  br i1 %6, label %7, label %9

7:                                                ; preds = %2
  %8 = load ptr, ptr %3, align 8
  call void @json_dumper_set_member_name(ptr noundef @dumper, ptr noundef %8)
  br label %9

9:                                                ; preds = %7, %2
  %10 = load ptr, ptr %4, align 8
  call void @json_dumper_value_string(ptr noundef @dumper, ptr noundef %10)
  ret void
}

; Function Attrs: null_pointer_is_valid sspstrong uwtable
define internal void @sharkd_session_process_tap_srt_cb(ptr noundef %0) #0 {
  %2 = alloca ptr, align 8
  %3 = alloca ptr, align 8
  %4 = alloca ptr, align 8
  %5 = alloca ptr, align 8
  %6 = alloca i32, align 4
  %7 = alloca ptr, align 8
  %8 = alloca i32, align 4
  %9 = alloca ptr, align 8
  %10 = alloca i32, align 4
  store ptr %0, ptr %2, align 8
  call void @llvm.lifetime.start.p0(i64 8, ptr %3) #21
  %11 = load ptr, ptr %2, align 8
  store ptr %11, ptr %3, align 8
  call void @llvm.lifetime.start.p0(i64 8, ptr %4) #21
  %12 = load ptr, ptr %3, align 8
  %13 = getelementptr inbounds nuw %struct._srt_data_t, ptr %12, i32 0, i32 1
  %14 = load ptr, ptr %13, align 8
  store ptr %14, ptr %4, align 8
  call void @llvm.lifetime.start.p0(i64 8, ptr %5) #21
  %15 = load ptr, ptr %4, align 8
  %16 = call i32 @get_srt_proto_id(ptr noundef %15)
  %17 = call ptr @proto_get_protocol_filter_name(i32 noundef %16)
  store ptr %17, ptr %5, align 8
  call void @llvm.lifetime.start.p0(i64 4, ptr %6) #21
  call void @json_dumper_begin_object(ptr noundef @dumper)
  %18 = load ptr, ptr %5, align 8
  call void (ptr, ptr, ...) @sharkd_json_value_stringf(ptr noundef @.str.20, ptr noundef @.str.175, ptr noundef %18)
  call void @sharkd_json_value_string(ptr noundef @.str.244, ptr noundef @.str.163)
  call void @sharkd_json_array_open(ptr noundef @.str.298)
  store i32 0, ptr %6, align 4
  br label %19

19:                                               ; preds = %131, %1
  %20 = load i32, ptr %6, align 4
  %21 = load ptr, ptr %3, align 8
  %22 = getelementptr inbounds nuw %struct._srt_data_t, ptr %21, i32 0, i32 0
  %23 = load ptr, ptr %22, align 8
  %24 = getelementptr inbounds nuw %struct._GArray, ptr %23, i32 0, i32 1
  %25 = load i32, ptr %24, align 8
  %26 = icmp ult i32 %20, %25
  br i1 %26, label %27, label %134

27:                                               ; preds = %19
  call void @llvm.lifetime.start.p0(i64 8, ptr %7) #21
  %28 = load ptr, ptr %3, align 8
  %29 = getelementptr inbounds nuw %struct._srt_data_t, ptr %28, i32 0, i32 0
  %30 = load ptr, ptr %29, align 8
  %31 = getelementptr inbounds nuw %struct._GArray, ptr %30, i32 0, i32 0
  %32 = load ptr, ptr %31, align 8
  %33 = load i32, ptr %6, align 4
  %34 = zext i32 %33 to i64
  %35 = getelementptr ptr, ptr %32, i64 %34
  %36 = load ptr, ptr %35, align 8
  store ptr %36, ptr %7, align 8
  call void @llvm.lifetime.start.p0(i64 4, ptr %8) #21
  call void @json_dumper_begin_object(ptr noundef @dumper)
  %37 = load ptr, ptr %7, align 8
  %38 = getelementptr inbounds nuw %struct._srt_stat_table, ptr %37, i32 0, i32 0
  %39 = load ptr, ptr %38, align 8
  %40 = icmp ne ptr %39, null
  br i1 %40, label %41, label %45

41:                                               ; preds = %27
  %42 = load ptr, ptr %7, align 8
  %43 = getelementptr inbounds nuw %struct._srt_stat_table, ptr %42, i32 0, i32 0
  %44 = load ptr, ptr %43, align 8
  call void @sharkd_json_value_string(ptr noundef @.str.187, ptr noundef %44)
  br label %57

45:                                               ; preds = %27
  %46 = load ptr, ptr %7, align 8
  %47 = getelementptr inbounds nuw %struct._srt_stat_table, ptr %46, i32 0, i32 1
  %48 = load ptr, ptr %47, align 8
  %49 = icmp ne ptr %48, null
  br i1 %49, label %50, label %54

50:                                               ; preds = %45
  %51 = load ptr, ptr %7, align 8
  %52 = getelementptr inbounds nuw %struct._srt_stat_table, ptr %51, i32 0, i32 1
  %53 = load ptr, ptr %52, align 8
  call void @sharkd_json_value_string(ptr noundef @.str.187, ptr noundef %53)
  br label %56

54:                                               ; preds = %45
  %55 = load i32, ptr %6, align 4
  call void (ptr, ptr, ...) @sharkd_json_value_stringf(ptr noundef @.str.187, ptr noundef @.str.308, i32 noundef %55)
  br label %56

56:                                               ; preds = %54, %50
  br label %57

57:                                               ; preds = %56, %41
  %58 = load ptr, ptr %7, align 8
  %59 = getelementptr inbounds nuw %struct._srt_stat_table, ptr %58, i32 0, i32 2
  %60 = load ptr, ptr %59, align 8
  %61 = icmp ne ptr %60, null
  br i1 %61, label %62, label %66

62:                                               ; preds = %57
  %63 = load ptr, ptr %7, align 8
  %64 = getelementptr inbounds nuw %struct._srt_stat_table, ptr %63, i32 0, i32 2
  %65 = load ptr, ptr %64, align 8
  call void @sharkd_json_value_string(ptr noundef @.str.185, ptr noundef %65)
  br label %66

66:                                               ; preds = %62, %57
  %67 = load ptr, ptr %7, align 8
  %68 = getelementptr inbounds nuw %struct._srt_stat_table, ptr %67, i32 0, i32 4
  %69 = load ptr, ptr %68, align 8
  %70 = icmp ne ptr %69, null
  br i1 %70, label %71, label %75

71:                                               ; preds = %66
  %72 = load ptr, ptr %7, align 8
  %73 = getelementptr inbounds nuw %struct._srt_stat_table, ptr %72, i32 0, i32 4
  %74 = load ptr, ptr %73, align 8
  call void @sharkd_json_value_string(ptr noundef @.str.195, ptr noundef %74)
  br label %75

75:                                               ; preds = %71, %66
  call void @sharkd_json_array_open(ptr noundef @.str.309)
  store i32 0, ptr %8, align 4
  br label %76

76:                                               ; preds = %127, %75
  %77 = load i32, ptr %8, align 4
  %78 = load ptr, ptr %7, align 8
  %79 = getelementptr inbounds nuw %struct._srt_stat_table, ptr %78, i32 0, i32 3
  %80 = load i32, ptr %79, align 8
  %81 = icmp slt i32 %77, %80
  br i1 %81, label %82, label %130

82:                                               ; preds = %76
  call void @llvm.lifetime.start.p0(i64 8, ptr %9) #21
  %83 = load ptr, ptr %7, align 8
  %84 = getelementptr inbounds nuw %struct._srt_stat_table, ptr %83, i32 0, i32 5
  %85 = load ptr, ptr %84, align 8
  %86 = load i32, ptr %8, align 4
  %87 = sext i32 %86 to i64
  %88 = getelementptr %struct._srt_procedure_t, ptr %85, i64 %87
  store ptr %88, ptr %9, align 8
  %89 = load ptr, ptr %9, align 8
  %90 = getelementptr inbounds nuw %struct._srt_procedure_t, ptr %89, i32 0, i32 1
  %91 = getelementptr inbounds nuw %struct._timestat_t, ptr %90, i32 0, i32 0
  %92 = load i32, ptr %91, align 8
  %93 = icmp eq i32 %92, 0
  br i1 %93, label %94, label %95

94:                                               ; preds = %82
  store i32 7, ptr %10, align 4
  br label %124

95:                                               ; preds = %82
  call void @json_dumper_begin_object(ptr noundef @dumper)
  %96 = load ptr, ptr %9, align 8
  %97 = getelementptr inbounds nuw %struct._srt_procedure_t, ptr %96, i32 0, i32 2
  %98 = load ptr, ptr %97, align 8
  call void @sharkd_json_value_string(ptr noundef @.str.187, ptr noundef %98)
  %99 = load ptr, ptr %7, align 8
  %100 = getelementptr inbounds nuw %struct._srt_stat_table, ptr %99, i32 0, i32 2
  %101 = load ptr, ptr %100, align 8
  %102 = icmp ne ptr %101, null
  br i1 %102, label %103, label %107

103:                                              ; preds = %95
  %104 = load ptr, ptr %9, align 8
  %105 = getelementptr inbounds nuw %struct._srt_procedure_t, ptr %104, i32 0, i32 0
  %106 = load i32, ptr %105, align 8
  call void (ptr, ptr, ...) @sharkd_json_value_anyf(ptr noundef @.str.310, ptr noundef @.str.5, i32 noundef %106)
  br label %107

107:                                              ; preds = %103, %95
  %108 = load ptr, ptr %9, align 8
  %109 = getelementptr inbounds nuw %struct._srt_procedure_t, ptr %108, i32 0, i32 1
  %110 = getelementptr inbounds nuw %struct._timestat_t, ptr %109, i32 0, i32 0
  %111 = load i32, ptr %110, align 8
  call void (ptr, ptr, ...) @sharkd_json_value_anyf(ptr noundef @.str.196, ptr noundef @.str.123, i32 noundef %111)
  %112 = load ptr, ptr %9, align 8
  %113 = getelementptr inbounds nuw %struct._srt_procedure_t, ptr %112, i32 0, i32 1
  %114 = getelementptr inbounds nuw %struct._timestat_t, ptr %113, i32 0, i32 3
  %115 = call double @nstime_to_sec(ptr noundef %114)
  call void (ptr, ptr, ...) @sharkd_json_value_anyf(ptr noundef @.str.248, ptr noundef @.str.125, double noundef %115)
  %116 = load ptr, ptr %9, align 8
  %117 = getelementptr inbounds nuw %struct._srt_procedure_t, ptr %116, i32 0, i32 1
  %118 = getelementptr inbounds nuw %struct._timestat_t, ptr %117, i32 0, i32 4
  %119 = call double @nstime_to_sec(ptr noundef %118)
  call void (ptr, ptr, ...) @sharkd_json_value_anyf(ptr noundef @.str.249, ptr noundef @.str.125, double noundef %119)
  %120 = load ptr, ptr %9, align 8
  %121 = getelementptr inbounds nuw %struct._srt_procedure_t, ptr %120, i32 0, i32 1
  %122 = getelementptr inbounds nuw %struct._timestat_t, ptr %121, i32 0, i32 5
  %123 = call double @nstime_to_sec(ptr noundef %122)
  call void (ptr, ptr, ...) @sharkd_json_value_anyf(ptr noundef @.str.305, ptr noundef @.str.125, double noundef %123)
  call void @json_dumper_end_object(ptr noundef @dumper)
  store i32 0, ptr %10, align 4
  br label %124

124:                                              ; preds = %107, %94
  call void @llvm.lifetime.end.p0(i64 8, ptr %9) #21
  %125 = load i32, ptr %10, align 4
  switch i32 %125, label %135 [
    i32 0, label %126
    i32 7, label %127
  ]

126:                                              ; preds = %124
  br label %127

127:                                              ; preds = %126, %124
  %128 = load i32, ptr %8, align 4
  %129 = add i32 %128, 1
  store i32 %129, ptr %8, align 4
  br label %76, !llvm.loop !58

130:                                              ; preds = %76
  call void @sharkd_json_array_close()
  call void @json_dumper_end_object(ptr noundef @dumper)
  call void @llvm.lifetime.end.p0(i64 4, ptr %8) #21
  call void @llvm.lifetime.end.p0(i64 8, ptr %7) #21
  br label %131

131:                                              ; preds = %130
  %132 = load i32, ptr %6, align 4
  %133 = add i32 %132, 1
  store i32 %133, ptr %6, align 4
  br label %19, !llvm.loop !59

134:                                              ; preds = %19
  call void @sharkd_json_array_close()
  call void @json_dumper_end_object(ptr noundef @dumper)
  call void @llvm.lifetime.end.p0(i64 4, ptr %6) #21
  call void @llvm.lifetime.end.p0(i64 8, ptr %5) #21
  call void @llvm.lifetime.end.p0(i64 8, ptr %4) #21
  call void @llvm.lifetime.end.p0(i64 8, ptr %3) #21
  ret void

135:                                              ; preds = %124
  unreachable
}