; Function Attrs: null_pointer_is_valid sspstrong uwtable
define internal void @sharkd_session_process_tap_srt_cb(ptr noundef readonly captures(none) %0) #0 {
  %2 = getelementptr inbounds nuw i8, ptr %0, i64 8
  %3 = load ptr, ptr %2, align 8
  %4 = tail call i32 @get_srt_proto_id(ptr noundef %3)
  %5 = tail call ptr @proto_get_protocol_filter_name(i32 noundef %4)
  tail call void @json_dumper_begin_object(ptr noundef nonnull @dumper)
  tail call void (ptr, ptr, ...) @sharkd_json_value_stringf(ptr noundef nonnull @.str.20, ptr noundef nonnull @.str.175, ptr noundef %5)
  tail call void @json_dumper_set_member_name(ptr noundef nonnull @dumper, ptr noundef nonnull @.str.244)
  tail call void @json_dumper_value_string(ptr noundef nonnull @dumper, ptr noundef nonnull @.str.163)
  tail call void @json_dumper_set_member_name(ptr noundef nonnull @dumper, ptr noundef nonnull @.str.298)
  tail call void @json_dumper_begin_array(ptr noundef nonnull @dumper)
  %6 = load ptr, ptr %0, align 8
  %7 = getelementptr inbounds nuw i8, ptr %6, i64 8
  %8 = load i32, ptr %7, align 8
  %.not44 = icmp eq i32 %8, 0
  br i1 %.not44, label %._crit_edge43, label %.lr.ph42

.lr.ph42:                                         ; preds = %1, %._crit_edge
  %indvars.iv46 = phi i64 [ %indvars.iv.next47, %._crit_edge ], [ 0, %1 ]
  %9 = phi ptr [ %59, %._crit_edge ], [ %6, %1 ]
  %10 = load ptr, ptr %9, align 8
  %11 = getelementptr ptr, ptr %10, i64 %indvars.iv46
  %12 = load ptr, ptr %11, align 8
  tail call void @json_dumper_begin_object(ptr noundef nonnull @dumper)
  %13 = load ptr, ptr %12, align 8
  %.not = icmp eq ptr %13, null
  br i1 %.not, label %15, label %14

14:                                               ; preds = %.lr.ph42
  tail call void @json_dumper_set_member_name(ptr noundef nonnull @dumper, ptr noundef nonnull @.str.187)
  tail call void @json_dumper_value_string(ptr noundef nonnull @dumper, ptr noundef nonnull %13)
  br label %21

15:                                               ; preds = %.lr.ph42
  %16 = getelementptr inbounds nuw i8, ptr %12, i64 8
  %17 = load ptr, ptr %16, align 8
  %.not35 = icmp eq ptr %17, null
  br i1 %.not35, label %19, label %18

18:                                               ; preds = %15
  tail call void @json_dumper_set_member_name(ptr noundef nonnull @dumper, ptr noundef nonnull @.str.187)
  tail call void @json_dumper_value_string(ptr noundef nonnull @dumper, ptr noundef nonnull %17)
  br label %21

19:                                               ; preds = %15
  %20 = trunc nuw i64 %indvars.iv46 to i32
  tail call void (ptr, ptr, ...) @sharkd_json_value_stringf(ptr noundef nonnull @.str.187, ptr noundef nonnull @.str.308, i32 noundef %20)
  br label %21

21:                                               ; preds = %18, %19, %14
  %22 = getelementptr inbounds nuw i8, ptr %12, i64 16
  %23 = load ptr, ptr %22, align 8
  %.not36 = icmp eq ptr %23, null
  br i1 %.not36, label %25, label %24

24:                                               ; preds = %21
  tail call void @json_dumper_set_member_name(ptr noundef nonnull @dumper, ptr noundef nonnull @.str.185)
  tail call void @json_dumper_value_string(ptr noundef nonnull @dumper, ptr noundef nonnull %23)
  br label %25

25:                                               ; preds = %24, %21
  %26 = getelementptr inbounds nuw i8, ptr %12, i64 32
  %27 = load ptr, ptr %26, align 8
  %.not37 = icmp eq ptr %27, null
  br i1 %.not37, label %29, label %28

28:                                               ; preds = %25
  tail call void @json_dumper_set_member_name(ptr noundef nonnull @dumper, ptr noundef nonnull @.str.195)
  tail call void @json_dumper_value_string(ptr noundef nonnull @dumper, ptr noundef nonnull %27)
  br label %29

29:                                               ; preds = %28, %25
  tail call void @json_dumper_set_member_name(ptr noundef nonnull @dumper, ptr noundef nonnull @.str.309)
  tail call void @json_dumper_begin_array(ptr noundef nonnull @dumper)
  %30 = getelementptr inbounds nuw i8, ptr %12, i64 24
  %31 = load i32, ptr %30, align 8
  %32 = icmp sgt i32 %31, 0
  br i1 %32, label %.lr.ph, label %._crit_edge

.lr.ph:                                           ; preds = %29
  %33 = getelementptr inbounds nuw i8, ptr %12, i64 40
  br label %34

34:                                               ; preds = %.lr.ph, %55
  %35 = phi i32 [ %31, %.lr.ph ], [ %56, %55 ]
  %indvars.iv = phi i64 [ 0, %.lr.ph ], [ %indvars.iv.next, %55 ]
  %36 = load ptr, ptr %33, align 8
  %37 = getelementptr %struct._srt_procedure_t, ptr %36, i64 %indvars.iv
  %38 = getelementptr inbounds nuw i8, ptr %37, i64 8
  %39 = load i32, ptr %38, align 8
  %40 = icmp eq i32 %39, 0
  br i1 %40, label %55, label %41

41:                                               ; preds = %34
  tail call void @json_dumper_begin_object(ptr noundef nonnull @dumper)
  %42 = getelementptr inbounds nuw i8, ptr %37, i64 80
  %43 = load ptr, ptr %42, align 8
  tail call void @json_dumper_set_member_name(ptr noundef nonnull @dumper, ptr noundef nonnull @.str.187)
  tail call void @json_dumper_value_string(ptr noundef nonnull @dumper, ptr noundef %43)
  %44 = load ptr, ptr %22, align 8
  %.not38 = icmp eq ptr %44, null
  br i1 %.not38, label %47, label %45

45:                                               ; preds = %41
  %46 = load i32, ptr %37, align 8
  tail call void (ptr, ptr, ...) @sharkd_json_value_anyf(ptr noundef nonnull @.str.310, ptr noundef nonnull @.str.5, i32 noundef %46)
  br label %47

47:                                               ; preds = %45, %41
  %48 = load i32, ptr %38, align 8
  tail call void (ptr, ptr, ...) @sharkd_json_value_anyf(ptr noundef nonnull @.str.196, ptr noundef nonnull @.str.123, i32 noundef %48)
  %49 = getelementptr inbounds nuw i8, ptr %37, i64 24
  %50 = tail call double @nstime_to_sec(ptr noundef nonnull %49)
  tail call void (ptr, ptr, ...) @sharkd_json_value_anyf(ptr noundef nonnull @.str.248, ptr noundef nonnull @.str.125, double noundef %50)
  %51 = getelementptr inbounds nuw i8, ptr %37, i64 40
  %52 = tail call double @nstime_to_sec(ptr noundef nonnull %51)
  tail call void (ptr, ptr, ...) @sharkd_json_value_anyf(ptr noundef nonnull @.str.249, ptr noundef nonnull @.str.125, double noundef %52)
  %53 = getelementptr inbounds nuw i8, ptr %37, i64 56
  %54 = tail call double @nstime_to_sec(ptr noundef nonnull %53)
  tail call void (ptr, ptr, ...) @sharkd_json_value_anyf(ptr noundef nonnull @.str.305, ptr noundef nonnull @.str.125, double noundef %54)
  tail call void @json_dumper_end_object(ptr noundef nonnull @dumper)
  %.pre = load i32, ptr %30, align 8
  br label %55

55:                                               ; preds = %34, %47
  %56 = phi i32 [ %35, %34 ], [ %.pre, %47 ]
  %indvars.iv.next = add nuw nsw i64 %indvars.iv, 1
  %57 = sext i32 %56 to i64
  %58 = icmp slt i64 %indvars.iv.next, %57
  br i1 %58, label %34, label %._crit_edge, !llvm.loop !59

._crit_edge:                                      ; preds = %55, %29
  tail call void @json_dumper_end_array(ptr noundef nonnull @dumper)
  tail call void @json_dumper_end_object(ptr noundef nonnull @dumper)
  %indvars.iv.next47 = add nuw nsw i64 %indvars.iv46, 1
  %59 = load ptr, ptr %0, align 8
  %60 = getelementptr inbounds nuw i8, ptr %59, i64 8
  %61 = load i32, ptr %60, align 8
  %62 = zext i32 %61 to i64
  %63 = icmp samesign ult i64 %indvars.iv.next47, %62
  br i1 %63, label %.lr.ph42, label %._crit_edge43, !llvm.loop !60

._crit_edge43:                                    ; preds = %._crit_edge, %1
  tail call void @json_dumper_end_array(ptr noundef nonnull @dumper)
  tail call void @json_dumper_end_object(ptr noundef nonnull @dumper)
  ret void
}